; Function Attrs: mustprogress nofree norecurse nosync nounwind willreturn memory(readwrite, inaccessiblemem: none) uwtable
define dso_local void @_ZN10btSoftBody11addVelocityERK9btVector3i(ptr nocapture noundef nonnull readonly align 8 dereferenceable(2064) %this, ptr nocapture noundef nonnull readonly align 4 dereferenceable(16) %velocity, i32 noundef %node) local_unnamed_addr #15 align 2 {
entry:
  %m_data.i = getelementptr inbounds i8, ptr %this, i64 944
  %0 = load ptr, ptr %m_data.i, align 8
  %idxprom.i = sext i32 %node to i64
  %arrayidx.i = getelementptr inbounds %"struct.btSoftBody::Node", ptr %0, i64 %idxprom.i
  %m_im = getelementptr inbounds i8, ptr %arrayidx.i, i64 112
  %1 = load float, ptr %m_im, align 8
  %cmp = fcmp ogt float %1, 0.000000e+00
  br i1 %cmp, label %if.then, label %if.end

if.then:                                          ; preds = %entry
  %m_v = getelementptr inbounds i8, ptr %arrayidx.i, i64 48
  %2 = load float, ptr %velocity, align 4
  %3 = load float, ptr %m_v, align 4
  %add.i = fadd float %2, %3
  store float %add.i, ptr %m_v, align 4
  %arrayidx5.i = getelementptr inbounds i8, ptr %velocity, i64 4
  %4 = load float, ptr %arrayidx5.i, align 4
  %arrayidx7.i = getelementptr inbounds i8, ptr %arrayidx.i, i64 52
  %5 = load float, ptr %arrayidx7.i, align 4
  %add8.i = fadd float %4, %5
  store float %add8.i, ptr %arrayidx7.i, align 4
  %arrayidx10.i = getelementptr inbounds i8, ptr %velocity, i64 8
  %6 = load float, ptr %arrayidx10.i, align 4
  %arrayidx12.i = getelementptr inbounds i8, ptr %arrayidx.i, i64 56
  %7 = load float, ptr %arrayidx12.i, align 4
  %add13.i = fadd float %6, %7
  store float %add13.i, ptr %arrayidx12.i, align 4
  br label %if.end

if.end:                                           ; preds = %if.then, %entry
  ret void
}